target datalayout = "e-m:e-p270:32:32-p271:32:32-p272:64:64-i64:64-i128:128-f80:128-n8:16:32:64-S128"
target triple = "x86_64-pc-linux-gnu"

%struct.ma_vec3f = type { float, float, float }
%struct.ma_allocation_callbacks = type { ptr, ptr, ptr, ptr }
%struct.ma_atomic_vec3f = type { %struct.ma_vec3f, i32 }
%struct.ma_spatializer_listener_config = type { i32, ptr, i32, float, float, float, float, %struct.ma_vec3f }
%struct.ma_spatializer_listener = type { %struct.ma_spatializer_listener_config, %struct.ma_atomic_vec3f, %struct.ma_atomic_vec3f, %struct.ma_atomic_vec3f, i32, i32, ptr }
%struct.ma_node_graph = type { %struct.ma_node_base, %struct.ma_node_base, i16, i32 }
%struct.ma_node_base = type { ptr, ptr, ptr, i16, i16, i16, i16, i32, [2 x i64], i64, i32, i32, ptr, ptr, [2 x %struct.ma_node_input_bus], [2 x %struct.ma_node_output_bus], ptr, i32 }
%struct.ma_node_input_bus = type { %struct.ma_node_output_bus, i32, i32, i8 }
%struct.ma_node_output_bus = type { ptr, i8, i8, i8, i32, i32, i32, i32, float, ptr, ptr, ptr }
%struct.ma_engine = type { %struct.ma_node_graph, ptr, ptr, ptr, i32, i32, [4 x %struct.ma_spatializer_listener], %struct.ma_allocation_callbacks, i8, i8, i32, ptr, i32, i32, i32, i32, ptr, ptr }

; Function Attrs: nounwind uwtable
define i32 @ma_node_set_time(ptr noundef %0, i64 noundef %1) #0 {
  %3 = alloca i32, align 4
  %4 = alloca ptr, align 8
  %5 = alloca i64, align 8
  %6 = alloca i64, align 8
  %7 = alloca i64, align 8
  store ptr %0, ptr %4, align 8, !tbaa !25
  store i64 %1, ptr %5, align 8, !tbaa !47
  %8 = load ptr, ptr %4, align 8, !tbaa !25
  %9 = icmp eq ptr %8, null
  br i1 %9, label %10, label %11

10:                                               ; preds = %2
  store i32 -2, ptr %3, align 4
  br label %17

11:                                               ; preds = %2
  %12 = load ptr, ptr %4, align 8, !tbaa !25
  %13 = getelementptr inbounds nuw %struct.ma_node_base, ptr %12, i32 0, i32 9
  %14 = load i64, ptr %5, align 8, !tbaa !47
  store i64 %14, ptr %6, align 8, !tbaa !47
  %15 = load i64, ptr %6, align 8
  %16 = atomicrmw xchg ptr %13, i64 %15 seq_cst, align 8
  store i64 %16, ptr %7, align 8
  store i32 0, ptr %3, align 4
  br label %17

17:                                               ; preds = %11, %10
  %18 = load i32, ptr %3, align 4
  ret i32 %18
}

; Function Attrs: nounwind uwtable
define i32 @ma_node_graph_set_time(ptr noundef %0, i64 noundef %1) #0 {
  %3 = alloca i32, align 4
  %4 = alloca ptr, align 8
  %5 = alloca i64, align 8
  store ptr %0, ptr %4, align 8, !tbaa !1299
  store i64 %1, ptr %5, align 8, !tbaa !47
  %6 = load ptr, ptr %4, align 8, !tbaa !1299
  %7 = icmp eq ptr %6, null
  br i1 %7, label %8, label %9

8:                                                ; preds = %2
  store i32 -2, ptr %3, align 4
  br label %14

9:                                                ; preds = %2
  %10 = load ptr, ptr %4, align 8, !tbaa !1299
  %11 = getelementptr inbounds nuw %struct.ma_node_graph, ptr %10, i32 0, i32 1
  %12 = load i64, ptr %5, align 8, !tbaa !47
  %13 = call i32 @ma_node_set_time(ptr noundef %11, i64 noundef %12)
  store i32 %13, ptr %3, align 4
  br label %14

14:                                               ; preds = %9, %8
  %15 = load i32, ptr %3, align 4
  ret i32 %15
}

; Function Attrs: nounwind uwtable
define i32 @ma_engine_set_time_in_pcm_frames(ptr noundef %0, i64 noundef %1) #0 {
  %3 = alloca ptr, align 8
  %4 = alloca i64, align 8
  store ptr %0, ptr %3, align 8, !tbaa !1388
  store i64 %1, ptr %4, align 8, !tbaa !47
  %5 = load ptr, ptr %3, align 8, !tbaa !1388
  %6 = getelementptr inbounds nuw %struct.ma_engine, ptr %5, i32 0, i32 0
  %7 = load i64, ptr %4, align 8, !tbaa !47
  %8 = call i32 @ma_node_graph_set_time(ptr noundef %6, i64 noundef %7)
  ret i32 %8
}

; Function Attrs: nounwind uwtable
define i32 @ma_engine_get_sample_rate(ptr noundef %0) #0 {
  %2 = alloca i32, align 4
  %3 = alloca ptr, align 8
  store ptr %0, ptr %3, align 8, !tbaa !1388
  %4 = load ptr, ptr %3, align 8, !tbaa !1388
  %5 = icmp eq ptr %4, null
  br i1 %5, label %6, label %7

6:                                                ; preds = %1
  store i32 0, ptr %2, align 4
  br label %11

7:                                                ; preds = %1
  %8 = load ptr, ptr %3, align 8, !tbaa !1388
  %9 = getelementptr inbounds nuw %struct.ma_engine, ptr %8, i32 0, i32 4
  %10 = load i32, ptr %9, align 8, !tbaa !1421
  store i32 %10, ptr %2, align 4
  br label %11

11:                                               ; preds = %7, %6
  %12 = load i32, ptr %2, align 4
  ret i32 %12
}

; Function Attrs: nounwind uwtable
define i32 @ma_engine_set_time_in_milliseconds(ptr noundef %0, i64 noundef %1) #0 {
  %3 = alloca ptr, align 8
  %4 = alloca i64, align 8
  store ptr %0, ptr %3, align 8, !tbaa !1388
  store i64 %1, ptr %4, align 8, !tbaa !47
  %5 = load ptr, ptr %3, align 8, !tbaa !1388
  %6 = load i64, ptr %4, align 8, !tbaa !47
  %7 = load ptr, ptr %3, align 8, !tbaa !1388
  %8 = call i32 @ma_engine_get_sample_rate(ptr noundef %7)
  %9 = zext i32 %8 to i64
  %10 = mul i64 %6, %9
  %11 = udiv i64 %10, 1000
  %12 = call i32 @ma_engine_set_time_in_pcm_frames(ptr noundef %5, i64 noundef %11)
  ret i32 %12
}