; Function Attrs: mustprogress nofree norecurse nounwind willreturn memory(argmem: readwrite) uwtable
define range(i32 -2, 1) i32 @ma_engine_set_time_in_milliseconds(ptr noundef captures(address_is_null) %0, i64 noundef %1) local_unnamed_addr #26 {
  %3 = icmp eq ptr %0, null
  br i1 %3, label %ma_engine_set_time_in_pcm_frames.exit, label %4

4:                                                ; preds = %2
  %5 = getelementptr inbounds nuw i8, ptr %0, i64 752
  %6 = load i32, ptr %5, align 8, !tbaa !1760
  %7 = zext i32 %6 to i64
  %8 = mul i64 %1, %7
  %9 = udiv i64 %8, 1000
  %10 = getelementptr inbounds nuw i8, ptr %0, i64 416
  %11 = atomicrmw xchg ptr %10, i64 %9 seq_cst, align 8
  br label %ma_engine_set_time_in_pcm_frames.exit

ma_engine_set_time_in_pcm_frames.exit:            ; preds = %2, %4
  %.0.i.i = phi i32 [ 0, %4 ], [ -2, %2 ]
  ret i32 %.0.i.i
}